target datalayout = "e-m:e-p270:32:32-p271:32:32-p272:64:64-i64:64-i128:128-f80:128-n8:16:32:64-S128"
target triple = "x86_64-pc-linux-gnu"

%struct._capture_file = type { ptr, i32, ptr, ptr, i8, i8, i8, i64, i16, i32, i32, i32, ptr, i32, i64, i32, i32, i32, i32, i8, i32, %struct.nstime_t, i32, ptr, ptr, ptr, i8, i8, i32, ptr, i8, i8, i8, i8, i8, i32, i32, i8, ptr, i32, i32, i8, %struct.packet_provider_data, i32, i32, %struct.epan_column_info, ptr, ptr, ptr, %struct.wtap_rec, %struct.Buffer, ptr, i64, i32 }
%struct.nstime_t = type { i64, i32 }
%struct.packet_provider_data = type { ptr, ptr, ptr, ptr, ptr, ptr }
%struct.epan_column_info = type { ptr, i32, ptr, ptr, ptr, %struct.col_expr_t, i8, ptr }
%struct.col_expr_t = type { ptr, ptr }
%struct.wtap_rec = type { i32, i32, i32, %struct.nstime_t, i32, %struct.nstime_t, i8, %union.anon, ptr, i8, %struct.Buffer, %struct.Buffer }
%union.anon = type { %struct.wtap_packet_header }
%struct.wtap_packet_header = type { i32, i32, i32, i32, %union.wtap_pseudo_header }
%union.wtap_pseudo_header = type { %struct.erf_mc_phdr }
%struct.erf_mc_phdr = type { %struct.erf_phdr, [16 x %struct.erf_ehdr], %union.anon.1 }
%struct.erf_phdr = type { i64, i8, i8, i16, i16, i16 }
%struct.erf_ehdr = type { i64 }
%union.anon.1 = type { i32 }
%struct.Buffer = type { ptr, i64, i64, i64 }

; Function Attrs: null_pointer_is_valid sspstrong uwtable
define hidden void @cf_close(ptr noundef %0) #0 {
  %2 = alloca ptr, align 8
  store ptr %0, ptr %2, align 8
  %3 = load ptr, ptr %2, align 8
  %4 = getelementptr inbounds nuw %struct._capture_file, ptr %3, i32 0, i32 1
  %5 = load i32, ptr %4, align 8
  %6 = icmp eq i32 %5, 0
  br i1 %6, label %7, label %8

7:                                                ; preds = %1
  br label %46

8:                                                ; preds = %1
  %9 = load ptr, ptr %2, align 8
  %10 = getelementptr inbounds nuw %struct._capture_file, ptr %9, i32 0, i32 42
  %11 = getelementptr inbounds nuw %struct.packet_provider_data, ptr %10, i32 0, i32 0
  %12 = load ptr, ptr %11, align 8
  %13 = icmp ne ptr %12, null
  br i1 %13, label %14, label %22

14:                                               ; preds = %8
  %15 = load ptr, ptr %2, align 8
  %16 = getelementptr inbounds nuw %struct._capture_file, ptr %15, i32 0, i32 42
  %17 = getelementptr inbounds nuw %struct.packet_provider_data, ptr %16, i32 0, i32 0
  %18 = load ptr, ptr %17, align 8
  call void @wtap_close(ptr noundef %18)
  %19 = load ptr, ptr %2, align 8
  %20 = getelementptr inbounds nuw %struct._capture_file, ptr %19, i32 0, i32 42
  %21 = getelementptr inbounds nuw %struct.packet_provider_data, ptr %20, i32 0, i32 0
  store ptr null, ptr %21, align 8
  br label %22

22:                                               ; preds = %14, %8
  %23 = load ptr, ptr %2, align 8
  %24 = getelementptr inbounds nuw %struct._capture_file, ptr %23, i32 0, i32 2
  %25 = load ptr, ptr %24, align 8
  %26 = icmp ne ptr %25, null
  br i1 %26, label %27, label %43

27:                                               ; preds = %22
  %28 = load ptr, ptr %2, align 8
  %29 = getelementptr inbounds nuw %struct._capture_file, ptr %28, i32 0, i32 4
  %30 = load i8, ptr %29, align 8, !range !10, !noundef !11
  %31 = trunc i8 %30 to i1
  br i1 %31, label %32, label %37

32:                                               ; preds = %27
  %33 = load ptr, ptr %2, align 8
  %34 = getelementptr inbounds nuw %struct._capture_file, ptr %33, i32 0, i32 2
  %35 = load ptr, ptr %34, align 8
  %36 = call i32 @unlink(ptr noundef %35) #19
  br label %37

37:                                               ; preds = %32, %27
  %38 = load ptr, ptr %2, align 8
  %39 = getelementptr inbounds nuw %struct._capture_file, ptr %38, i32 0, i32 2
  %40 = load ptr, ptr %39, align 8
  call void @g_free(ptr noundef %40)
  %41 = load ptr, ptr %2, align 8
  %42 = getelementptr inbounds nuw %struct._capture_file, ptr %41, i32 0, i32 2
  store ptr null, ptr %42, align 8
  br label %43

43:                                               ; preds = %37, %22
  %44 = load ptr, ptr %2, align 8
  %45 = getelementptr inbounds nuw %struct._capture_file, ptr %44, i32 0, i32 1
  store i32 0, ptr %45, align 8
  br label %46

46:                                               ; preds = %43, %7
  ret void
}