; Function Attrs: null_pointer_is_valid sspstrong uwtable
define hidden void @cf_close(ptr noundef captures(none) %0) local_unnamed_addr #0 {
  %2 = getelementptr inbounds nuw i8, ptr %0, i64 8
  %3 = load i32, ptr %2, align 8
  %4 = icmp eq i32 %3, 0
  br i1 %4, label %21, label %5

5:                                                ; preds = %1
  %6 = getelementptr inbounds nuw i8, ptr %0, i64 224
  %7 = load ptr, ptr %6, align 8
  %.not = icmp eq ptr %7, null
  br i1 %.not, label %9, label %8

8:                                                ; preds = %5
  tail call void @wtap_close(ptr noundef nonnull %7)
  store ptr null, ptr %6, align 8
  br label %9

9:                                                ; preds = %8, %5
  %10 = getelementptr inbounds nuw i8, ptr %0, i64 16
  %11 = load ptr, ptr %10, align 8
  %.not11 = icmp eq ptr %11, null
  br i1 %.not11, label %20, label %12

12:                                               ; preds = %9
  %13 = getelementptr inbounds nuw i8, ptr %0, i64 32
  %14 = load i8, ptr %13, align 8, !range !10, !noundef !11
  %15 = trunc nuw i8 %14 to i1
  br i1 %15, label %16, label %18

16:                                               ; preds = %12
  %17 = tail call i32 @unlink(ptr noundef nonnull %11) #20
  %.pre = load ptr, ptr %10, align 8
  br label %18

18:                                               ; preds = %16, %12
  %19 = phi ptr [ %.pre, %16 ], [ %11, %12 ]
  tail call void @g_free(ptr noundef %19)
  store ptr null, ptr %10, align 8
  br label %20

20:                                               ; preds = %18, %9
  store i32 0, ptr %2, align 8
  br label %21

21:                                               ; preds = %1, %20
  ret void
}